target datalayout = "e-m:e-p270:32:32-p271:32:32-p272:64:64-i64:64-i128:128-f80:128-n8:16:32:64-S128"
target triple = "x86_64-pc-linux-gnu"

%struct._cms_typehandler_struct = type { i32, ptr, ptr, ptr, ptr, ptr, i32 }

; Function Attrs: nounwind uwtable
define internal ptr @Type_S15Fixed16_Read(ptr noundef %0, ptr noundef %1, ptr noundef %2, i32 noundef %3) #0 {
  %5 = alloca ptr, align 8
  %6 = alloca ptr, align 8
  %7 = alloca ptr, align 8
  %8 = alloca ptr, align 8
  %9 = alloca i32, align 4
  %10 = alloca ptr, align 8
  %11 = alloca i32, align 4
  %12 = alloca i32, align 4
  store ptr %0, ptr %6, align 8
  store ptr %1, ptr %7, align 8
  store ptr %2, ptr %8, align 8
  store i32 %3, ptr %9, align 4
  %13 = load ptr, ptr %8, align 8
  store i32 0, ptr %13, align 4
  %14 = load i32, ptr %9, align 4
  %15 = zext i32 %14 to i64
  %16 = udiv i64 %15, 4
  %17 = trunc i64 %16 to i32
  store i32 %17, ptr %12, align 4
  %18 = load ptr, ptr %6, align 8
  %19 = getelementptr inbounds %struct._cms_typehandler_struct, ptr %18, i32 0, i32 5
  %20 = load ptr, ptr %19, align 8
  %21 = load i32, ptr %12, align 4
  %22 = call ptr @_cmsCalloc(ptr noundef %20, i32 noundef %21, i32 noundef 8)
  store ptr %22, ptr %10, align 8
  %23 = load ptr, ptr %10, align 8
  %24 = icmp eq ptr %23, null
  br i1 %24, label %25, label %26

25:                                               ; preds = %4
  store ptr null, ptr %5, align 8
  br label %52

26:                                               ; preds = %4
  store i32 0, ptr %11, align 4
  br label %27

27:                                               ; preds = %45, %26
  %28 = load i32, ptr %11, align 4
  %29 = load i32, ptr %12, align 4
  %30 = icmp ult i32 %28, %29
  br i1 %30, label %31, label %48

31:                                               ; preds = %27
  %32 = load ptr, ptr %7, align 8
  %33 = load ptr, ptr %10, align 8
  %34 = load i32, ptr %11, align 4
  %35 = zext i32 %34 to i64
  %36 = getelementptr inbounds double, ptr %33, i64 %35
  %37 = call i32 @_cmsRead15Fixed16Number(ptr noundef %32, ptr noundef %36)
  %38 = icmp ne i32 %37, 0
  br i1 %38, label %44, label %39

39:                                               ; preds = %31
  %40 = load ptr, ptr %6, align 8
  %41 = getelementptr inbounds %struct._cms_typehandler_struct, ptr %40, i32 0, i32 5
  %42 = load ptr, ptr %41, align 8
  %43 = load ptr, ptr %10, align 8
  call void @_cmsFree(ptr noundef %42, ptr noundef %43)
  store ptr null, ptr %5, align 8
  br label %52

44:                                               ; preds = %31
  br label %45

45:                                               ; preds = %44
  %46 = load i32, ptr %11, align 4
  %47 = add i32 %46, 1
  store i32 %47, ptr %11, align 4
  br label %27, !llvm.loop !16

48:                                               ; preds = %27
  %49 = load i32, ptr %12, align 4
  %50 = load ptr, ptr %8, align 8
  store i32 %49, ptr %50, align 4
  %51 = load ptr, ptr %10, align 8
  store ptr %51, ptr %5, align 8
  br label %52

52:                                               ; preds = %48, %39, %25
  %53 = load ptr, ptr %5, align 8
  ret ptr %53
}