; Function Attrs: nounwind uwtable
define internal ptr @Type_S15Fixed16_Read(ptr nocapture noundef readonly %0, ptr noundef %1, ptr nocapture noundef writeonly %2, i32 noundef %3) #0 {
  store i32 0, ptr %2, align 4
  %5 = lshr i32 %3, 2
  %6 = getelementptr inbounds i8, ptr %0, i64 40
  %7 = load ptr, ptr %6, align 8
  %8 = tail call ptr @_cmsCalloc(ptr noundef %7, i32 noundef %5, i32 noundef 8) #13
  %9 = icmp eq ptr %8, null
  br i1 %9, label %15, label %.preheader

.preheader:                                       ; preds = %4
  %.not20 = icmp ult i32 %3, 4
  br i1 %.not20, label %._crit_edge, label %.lr.ph.preheader

.lr.ph.preheader:                                 ; preds = %.preheader
  %wide.trip.count = zext nneg i32 %5 to i64
  br label %.lr.ph

10:                                               ; preds = %.lr.ph
  %indvars.iv.next = add nuw nsw i64 %indvars.iv, 1
  %exitcond.not = icmp eq i64 %indvars.iv.next, %wide.trip.count
  br i1 %exitcond.not, label %._crit_edge, label %.lr.ph, !llvm.loop !16

.lr.ph:                                           ; preds = %.lr.ph.preheader, %10
  %indvars.iv = phi i64 [ 0, %.lr.ph.preheader ], [ %indvars.iv.next, %10 ]
  %11 = getelementptr inbounds double, ptr %8, i64 %indvars.iv
  %12 = tail call i32 @_cmsRead15Fixed16Number(ptr noundef %1, ptr noundef nonnull %11) #13
  %.not = icmp eq i32 %12, 0
  br i1 %.not, label %13, label %10

13:                                               ; preds = %.lr.ph
  %14 = load ptr, ptr %6, align 8
  tail call void @_cmsFree(ptr noundef %14, ptr noundef nonnull %8) #13
  br label %15

._crit_edge:                                      ; preds = %10, %.preheader
  store i32 %5, ptr %2, align 4
  br label %15

15:                                               ; preds = %4, %._crit_edge, %13
  %.0 = phi ptr [ null, %13 ], [ %8, %._crit_edge ], [ null, %4 ]
  ret ptr %.0
}